target datalayout = "e-m:e-p270:32:32-p271:32:32-p272:64:64-i64:64-i128:128-f80:128-n8:16:32:64-S128"
target triple = "x86_64-pc-linux-gnu"

%struct.expert_field = type { i32, i32 }
%struct._packet_info = type { ptr, ptr, i32, i32, %struct.nstime_t, %struct.nstime_t, %struct.nstime_t, i8, ptr, ptr, ptr, ptr, %struct._address, %struct._address, %struct._address, %struct._address, %struct._address, %struct._address, i32, ptr, i8, [3 x i8], %struct.anon, i32, i32, i32, i32, ptr, i8, ptr, ptr, i16, i16, i32, i32, i16, i32, i32, ptr, ptr, ptr, i8, i8, i16, i16, i16, i32, i16, i16, ptr, ptr, ptr, ptr, ptr, i32, i32 }
%struct.nstime_t = type { i64, i32 }
%struct._address = type { i32, i32, ptr, ptr }
%struct.anon = type { i8, [3 x i8] }

@ei_c2_c3_c4_format = internal global %struct.expert_field zeroinitializer, align 4
@hf_2008_1_app_version = internal global i32 0, align 4
@hf_ccm_opcode = internal global i32 0, align 4
@ett_ccm = internal global i32 0, align 4
@proto_ccm_app = internal global i32 0, align 4
@ccm_opcode_strings = internal constant [2 x { i32, [4 x i8], ptr }] [{ i32, [4 x i8], ptr } { i32 0, [4 x i8] zeroinitializer, ptr @.str.431 }, { i32, [4 x i8], ptr } zeroinitializer], align 16
@.str.737 = private unnamed_addr constant [66 x i8] c"DOF Violation: Type.1.1: Compressed 16-bit Compression Mandatory.\00", align 1
@.str.739 = private unnamed_addr constant [4 x i8] c"%s \00", align 1
@.str.740 = private unnamed_addr constant [20 x i8] c"Unknown Opcode (%d)\00", align 1
@.str.750 = private unnamed_addr constant [5 x i8] c"CCM \00", align 1

; Function Attrs: null_pointer_is_valid sspstrong uwtable
define internal void @validate_c2(ptr noundef %0, ptr noundef %1, i16 noundef zeroext %2, i32 noundef %3) #0 {
  %5 = alloca ptr, align 8
  %6 = alloca ptr, align 8
  %7 = alloca i16, align 2
  %8 = alloca i32, align 4
  store ptr %0, ptr %5, align 8
  store ptr %1, ptr %6, align 8
  store i16 %2, ptr %7, align 2
  store i32 %3, ptr %8, align 4
  %9 = load i32, ptr %8, align 4
  %10 = icmp sgt i32 %9, 1
  br i1 %10, label %11, label %19

11:                                               ; preds = %4
  %12 = load i16, ptr %7, align 2
  %13 = zext i16 %12 to i32
  %14 = icmp slt i32 %13, 128
  br i1 %14, label %15, label %19

15:                                               ; preds = %11
  %16 = load ptr, ptr %5, align 8
  %17 = load ptr, ptr %6, align 8
  %18 = call ptr (ptr, ptr, ptr, ptr, ...) @expert_add_info_format(ptr noundef %16, ptr noundef %17, ptr noundef @ei_c2_c3_c4_format, ptr noundef @.str.737)
  br label %19

19:                                               ; preds = %15, %11, %4
  ret void
}

; Function Attrs: null_pointer_is_valid sspstrong uwtable
define internal i32 @read_c2(ptr noundef %0, i32 noundef %1, ptr noundef %2, ptr noundef %3) #0 {
  %5 = alloca ptr, align 8
  %6 = alloca i32, align 4
  %7 = alloca ptr, align 8
  %8 = alloca ptr, align 8
  %9 = alloca i16, align 2
  %10 = alloca i8, align 1
  store ptr %0, ptr %5, align 8
  store i32 %1, ptr %6, align 4
  store ptr %2, ptr %7, align 8
  store ptr %3, ptr %8, align 8
  call void @llvm.lifetime.start.p0(i64 2, ptr %9) #19
  store i16 0, ptr %9, align 2
  call void @llvm.lifetime.start.p0(i64 1, ptr %10) #19
  %11 = load ptr, ptr %5, align 8
  %12 = load i32, ptr %6, align 4
  %13 = add i32 %12, 1
  store i32 %13, ptr %6, align 4
  %14 = call zeroext i8 @tvb_get_uint8(ptr noundef %11, i32 noundef %12)
  store i8 %14, ptr %10, align 1
  %15 = load i8, ptr %10, align 1
  %16 = zext i8 %15 to i32
  %17 = and i32 %16, 128
  %18 = icmp ne i32 %17, 0
  br i1 %18, label %19, label %39

19:                                               ; preds = %4
  %20 = load i8, ptr %10, align 1
  %21 = zext i8 %20 to i32
  %22 = and i32 %21, 127
  %23 = trunc i32 %22 to i8
  store i8 %23, ptr %10, align 1
  %24 = load i8, ptr %10, align 1
  %25 = zext i8 %24 to i32
  %26 = shl i32 %25, 8
  %27 = load ptr, ptr %5, align 8
  %28 = load i32, ptr %6, align 4
  %29 = add i32 %28, 1
  store i32 %29, ptr %6, align 4
  %30 = call zeroext i8 @tvb_get_uint8(ptr noundef %27, i32 noundef %28)
  %31 = zext i8 %30 to i32
  %32 = or i32 %26, %31
  %33 = trunc i32 %32 to i16
  store i16 %33, ptr %9, align 2
  %34 = load ptr, ptr %8, align 8
  %35 = icmp ne ptr %34, null
  br i1 %35, label %36, label %38

36:                                               ; preds = %19
  %37 = load ptr, ptr %8, align 8
  store i32 2, ptr %37, align 4
  br label %38

38:                                               ; preds = %36, %19
  br label %47

39:                                               ; preds = %4
  %40 = load i8, ptr %10, align 1
  %41 = zext i8 %40 to i16
  store i16 %41, ptr %9, align 2
  %42 = load ptr, ptr %8, align 8
  %43 = icmp ne ptr %42, null
  br i1 %43, label %44, label %46

44:                                               ; preds = %39
  %45 = load ptr, ptr %8, align 8
  store i32 1, ptr %45, align 4
  br label %46

46:                                               ; preds = %44, %39
  br label %47

47:                                               ; preds = %46, %38
  %48 = load ptr, ptr %7, align 8
  %49 = icmp ne ptr %48, null
  br i1 %49, label %50, label %53

50:                                               ; preds = %47
  %51 = load i16, ptr %9, align 2
  %52 = load ptr, ptr %7, align 8
  store i16 %51, ptr %52, align 2
  br label %53

53:                                               ; preds = %50, %47
  %54 = load i32, ptr %6, align 4
  call void @llvm.lifetime.end.p0(i64 1, ptr %10) #19
  call void @llvm.lifetime.end.p0(i64 2, ptr %9) #19
  ret i32 %54
}

; Function Attrs: null_pointer_is_valid sspstrong uwtable
define internal i32 @dissect_ccm_app(ptr noundef %0, ptr noundef %1, ptr noundef %2, ptr noundef %3) #0 {
  %5 = alloca ptr, align 8
  %6 = alloca ptr, align 8
  %7 = alloca ptr, align 8
  %8 = alloca ptr, align 8
  %9 = alloca i32, align 4
  %10 = alloca i8, align 1
  %11 = alloca i16, align 2
  %12 = alloca i32, align 4
  %13 = alloca ptr, align 8
  %14 = alloca ptr, align 8
  store ptr %0, ptr %5, align 8
  store ptr %1, ptr %6, align 8
  store ptr %2, ptr %7, align 8
  store ptr %3, ptr %8, align 8
  call void @llvm.lifetime.start.p0(i64 4, ptr %9) #19
  store i32 0, ptr %9, align 4
  call void @llvm.lifetime.start.p0(i64 1, ptr %10) #19
  store i8 0, ptr %10, align 1
  call void @llvm.lifetime.start.p0(i64 2, ptr %11) #19
  call void @llvm.lifetime.start.p0(i64 4, ptr %12) #19
  call void @llvm.lifetime.start.p0(i64 8, ptr %13) #19
  call void @llvm.lifetime.start.p0(i64 8, ptr %14) #19
  %15 = load ptr, ptr %6, align 8
  %16 = getelementptr inbounds nuw %struct._packet_info, ptr %15, i32 0, i32 1
  %17 = load ptr, ptr %16, align 8
  call void @col_set_str(ptr noundef %17, i32 noundef 35, ptr noundef @.str.750)
  store i32 0, ptr %9, align 4
  %18 = load ptr, ptr %7, align 8
  %19 = load i32, ptr @proto_ccm_app, align 4
  %20 = load ptr, ptr %5, align 8
  %21 = load i32, ptr %9, align 4
  %22 = call ptr @proto_tree_add_item(ptr noundef %18, i32 noundef %19, ptr noundef %20, i32 noundef %21, i32 noundef -1, i32 noundef 0)
  store ptr %22, ptr %13, align 8
  %23 = load ptr, ptr %13, align 8
  %24 = load i32, ptr @ett_ccm, align 4
  %25 = call ptr @proto_item_add_subtree(ptr noundef %23, i32 noundef %24)
  store ptr %25, ptr %14, align 8
  %26 = load ptr, ptr %5, align 8
  %27 = load i32, ptr %9, align 4
  %28 = call i32 @read_c2(ptr noundef %26, i32 noundef %27, ptr noundef %11, ptr noundef %12)
  store i32 %28, ptr %9, align 4
  %29 = load ptr, ptr %14, align 8
  %30 = load i32, ptr @hf_2008_1_app_version, align 4
  %31 = load ptr, ptr %5, align 8
  %32 = load i32, ptr %12, align 4
  %33 = load i16, ptr %11, align 2
  %34 = zext i16 %33 to i32
  %35 = call ptr @proto_tree_add_uint(ptr noundef %29, i32 noundef %30, ptr noundef %31, i32 noundef 0, i32 noundef %32, i32 noundef %34)
  store ptr %35, ptr %13, align 8
  %36 = load ptr, ptr %6, align 8
  %37 = load ptr, ptr %13, align 8
  %38 = load i16, ptr %11, align 2
  %39 = load i32, ptr %12, align 4
  call void @validate_c2(ptr noundef %36, ptr noundef %37, i16 noundef zeroext %38, i32 noundef %39)
  %40 = load ptr, ptr %5, align 8
  %41 = load i32, ptr %9, align 4
  %42 = call zeroext i8 @tvb_get_uint8(ptr noundef %40, i32 noundef %41)
  store i8 %42, ptr %10, align 1
  %43 = load ptr, ptr %6, align 8
  %44 = getelementptr inbounds nuw %struct._packet_info, ptr %43, i32 0, i32 1
  %45 = load ptr, ptr %44, align 8
  %46 = load i8, ptr %10, align 1
  %47 = zext i8 %46 to i32
  %48 = call ptr @val_to_str(i32 noundef %47, ptr noundef @ccm_opcode_strings, ptr noundef @.str.740)
  call void (ptr, i32, ptr, ...) @col_append_fstr(ptr noundef %45, i32 noundef 25, ptr noundef @.str.739, ptr noundef %48)
  %49 = load ptr, ptr %7, align 8
  %50 = icmp ne ptr %49, null
  br i1 %50, label %51, label %57

51:                                               ; preds = %4
  %52 = load ptr, ptr %14, align 8
  %53 = load i32, ptr @hf_ccm_opcode, align 4
  %54 = load ptr, ptr %5, align 8
  %55 = load i32, ptr %9, align 4
  %56 = call ptr @proto_tree_add_item(ptr noundef %52, i32 noundef %53, ptr noundef %54, i32 noundef %55, i32 noundef 1, i32 noundef 0)
  br label %57

57:                                               ; preds = %51, %4
  call void @llvm.lifetime.end.p0(i64 8, ptr %14) #19
  call void @llvm.lifetime.end.p0(i64 8, ptr %13) #19
  call void @llvm.lifetime.end.p0(i64 4, ptr %12) #19
  call void @llvm.lifetime.end.p0(i64 2, ptr %11) #19
  call void @llvm.lifetime.end.p0(i64 1, ptr %10) #19
  call void @llvm.lifetime.end.p0(i64 4, ptr %9) #19
  ret i32 1
}