; Function Attrs: null_pointer_is_valid sspstrong uwtable
define internal noundef i32 @dissect_ccm_app(ptr noundef %0, ptr noundef %1, ptr noundef %2, ptr readnone captures(none) %3) #0 {
  %5 = getelementptr inbounds nuw i8, ptr %1, i64 8
  %6 = load ptr, ptr %5, align 8
  tail call void @col_set_str(ptr noundef %6, i32 noundef 35, ptr noundef nonnull @.str.750)
  %7 = load i32, ptr @proto_ccm_app, align 4
  %8 = tail call ptr @proto_tree_add_item(ptr noundef %2, i32 noundef %7, ptr noundef %0, i32 noundef 0, i32 noundef -1, i32 noundef 0)
  %9 = load i32, ptr @ett_ccm, align 4
  %10 = tail call ptr @proto_item_add_subtree(ptr noundef %8, i32 noundef %9)
  %11 = tail call zeroext i8 @tvb_get_uint8(ptr noundef %0, i32 noundef 0)
  %.not.i = icmp slt i8 %11, 0
  br i1 %.not.i, label %12, label %19

12:                                               ; preds = %4
  %13 = and i8 %11, 127
  %14 = zext nneg i8 %13 to i16
  %15 = shl nuw nsw i16 %14, 8
  %16 = tail call zeroext i8 @tvb_get_uint8(ptr noundef %0, i32 noundef 1)
  %17 = zext i8 %16 to i16
  %18 = or disjoint i16 %15, %17
  br label %read_c2.exit

19:                                               ; preds = %4
  %20 = zext nneg i8 %11 to i16
  br label %read_c2.exit

read_c2.exit:                                     ; preds = %12, %19
  %.sink.i = phi i32 [ 2, %12 ], [ 1, %19 ]
  %.0.ph.i = phi i16 [ %18, %12 ], [ %20, %19 ]
  %21 = load i32, ptr @hf_2008_1_app_version, align 4
  %22 = zext nneg i16 %.0.ph.i to i32
  %23 = tail call ptr @proto_tree_add_uint(ptr noundef %10, i32 noundef %21, ptr noundef %0, i32 noundef 0, i32 noundef %.sink.i, i32 noundef %22)
  %24 = icmp samesign ult i16 %.0.ph.i, 128
  %or.cond.i = and i1 %.not.i, %24
  br i1 %or.cond.i, label %25, label %validate_c2.exit

25:                                               ; preds = %read_c2.exit
  %26 = tail call ptr (ptr, ptr, ptr, ptr, ...) @expert_add_info_format(ptr noundef %1, ptr noundef %23, ptr noundef nonnull @ei_c2_c3_c4_format, ptr noundef nonnull @.str.737)
  br label %validate_c2.exit

validate_c2.exit:                                 ; preds = %read_c2.exit, %25
  %27 = tail call zeroext i8 @tvb_get_uint8(ptr noundef %0, i32 noundef %.sink.i)
  %28 = load ptr, ptr %5, align 8
  %29 = zext i8 %27 to i32
  %30 = tail call ptr @val_to_str(i32 noundef %29, ptr noundef nonnull @ccm_opcode_strings, ptr noundef nonnull @.str.740)
  tail call void (ptr, i32, ptr, ...) @col_append_fstr(ptr noundef %28, i32 noundef 25, ptr noundef nonnull @.str.739, ptr noundef %30)
  %.not = icmp eq ptr %2, null
  br i1 %.not, label %34, label %31

31:                                               ; preds = %validate_c2.exit
  %32 = load i32, ptr @hf_ccm_opcode, align 4
  %33 = tail call ptr @proto_tree_add_item(ptr noundef %10, i32 noundef %32, ptr noundef %0, i32 noundef %.sink.i, i32 noundef 1, i32 noundef 0)
  br label %34

34:                                               ; preds = %31, %validate_c2.exit
  ret i32 1
}